; Function Attrs: nounwind uwtable
define dso_local i64 @hdr_add(ptr nocapture noundef %h, ptr noundef %from) local_unnamed_addr #6 {
entry:
  %iter = alloca %struct.hdr_iter, align 8
  store ptr %from, ptr %iter, align 8
  %counts_index.i.i = getelementptr inbounds i8, ptr %iter, i64 8
  store i32 -1, ptr %counts_index.i.i, align 8
  %total_count.i.i = getelementptr inbounds i8, ptr %from, i64 88
  %0 = load i64, ptr %total_count.i.i, align 8
  %total_count2.i.i = getelementptr inbounds i8, ptr %iter, i64 16
  store i64 %0, ptr %total_count2.i.i, align 8
  %count.i.i = getelementptr inbounds i8, ptr %iter, i64 24
  %value_iterated_from.i.i = getelementptr inbounds i8, ptr %iter, i64 72
  %_next_fp.i.i = getelementptr inbounds i8, ptr %iter, i64 120
  call void @llvm.memset.p0.i64(ptr noundef nonnull align 8 dereferenceable(32) %count.i.i, i8 0, i64 32, i1 false)
  call void @llvm.memset.p0.i64(ptr noundef nonnull align 8 dereferenceable(24) %value_iterated_from.i.i, i8 0, i64 24, i1 false)
  store ptr @recorded_iter_next, ptr %_next_fp.i.i, align 8
  %call.i6 = call zeroext i1 @recorded_iter_next(ptr noundef nonnull %iter) #21
  br i1 %call.i6, label %while.body.lr.ph, label %while.end

while.body.lr.ph:                                 ; preds = %entry
  %value1 = getelementptr inbounds i8, ptr %iter, i64 40
  %sub_bucket_mask.i.i.i = getelementptr inbounds i8, ptr %h, i64 32
  %unit_magnitude.i.i.i = getelementptr inbounds i8, ptr %h, i64 16
  %sub_bucket_half_count_magnitude.i.i.i = getelementptr inbounds i8, ptr %h, i64 24
  %1 = getelementptr i8, ptr %h, i64 28
  %counts_len.i = getelementptr inbounds i8, ptr %h, i64 80
  %normalizing_index_offset.i.i.i = getelementptr inbounds i8, ptr %h, i64 64
  %counts.i.i = getelementptr inbounds i8, ptr %h, i64 96
  %total_count.i.i3 = getelementptr inbounds i8, ptr %h, i64 88
  %min_value.i.i = getelementptr inbounds i8, ptr %h, i64 48
  %max_value.i.i = getelementptr inbounds i8, ptr %h, i64 56
  br label %while.body

while.body:                                       ; preds = %while.body.lr.ph, %while.cond
  %dropped.07 = phi i64 [ 0, %while.body.lr.ph ], [ %19, %while.cond ]
  %2 = load i64, ptr %value1, align 8
  %3 = load i64, ptr %count.i.i, align 8
  %cmp.i = icmp slt i64 %2, 0
  br i1 %cmp.i, label %hdr_record_values.exit.thread, label %if.end.i

if.end.i:                                         ; preds = %while.body
  %4 = load i64, ptr %sub_bucket_mask.i.i.i, align 8
  %or.i.i.i = or i64 %4, %2
  %5 = call i64 @llvm.ctlz.i64(i64 %or.i.i.i, i1 true), !range !5
  %cast.i.i.i.i = trunc i64 %5 to i32
  %6 = load i32, ptr %unit_magnitude.i.i.i, align 8
  %7 = load i32, ptr %sub_bucket_half_count_magnitude.i.i.i, align 8
  %8 = add i32 %7, %6
  %9 = add i32 %8, %cast.i.i.i.i
  %reass.sub.i.i = add i32 %6, 63
  %add.i.i.i = sub i32 %reass.sub.i.i, %9
  %sh_prom.i.i.i = zext nneg i32 %add.i.i.i to i64
  %shr.i.i.i = lshr i64 %2, %sh_prom.i.i.i
  %conv.i.i.i = trunc i64 %shr.i.i.i to i32
  %h.val5.i.i = load i32, ptr %1, align 4
  %add.i6.i.i = sub i32 64, %9
  %shl.i.i.i = shl i32 %add.i6.i.i, %7
  %sub.i.i.i = sub i32 %shl.i.i.i, %h.val5.i.i
  %add1.i.i.i = add i32 %sub.i.i.i, %conv.i.i.i
  %cmp1.i = icmp slt i32 %add1.i.i.i, 0
  br i1 %cmp1.i, label %hdr_record_values.exit.thread, label %lor.lhs.false.i

lor.lhs.false.i:                                  ; preds = %if.end.i
  %10 = load i32, ptr %counts_len.i, align 8
  %cmp2.not.i = icmp sgt i32 %10, %add1.i.i.i
  br i1 %cmp2.not.i, label %if.end4.i, label %hdr_record_values.exit.thread

if.end4.i:                                        ; preds = %lor.lhs.false.i
  %11 = load i32, ptr %normalizing_index_offset.i.i.i, align 8
  %cmp.i.i.i = icmp eq i32 %11, 0
  br i1 %cmp.i.i.i, label %12, label %if.end.i.i.i

if.end.i.i.i:                                     ; preds = %if.end4.i
  %sub.i.i8.i = sub nsw i32 %add1.i.i.i, %11
  %cmp2.i.i.i = icmp slt i32 %sub.i.i8.i, 0
  %cmp5.not.i.i.i = icmp slt i32 %sub.i.i8.i, %10
  %sub8.i.i.i = sub nsw i32 0, %10
  %spec.select.i.i.i = select i1 %cmp5.not.i.i.i, i32 0, i32 %sub8.i.i.i
  %adjustment.0.i.i.i = select i1 %cmp2.i.i.i, i32 %10, i32 %spec.select.i.i.i
  %add.i.i9.i = add nsw i32 %adjustment.0.i.i.i, %sub.i.i8.i
  br label %12

hdr_record_values.exit.thread:                    ; preds = %while.body, %lor.lhs.false.i, %if.end.i
  %add5 = add nsw i64 %3, %dropped.07
  br label %while.cond

12:                                               ; preds = %if.end.i.i.i, %if.end4.i
  %retval.0.i.i.i = phi i32 [ %add.i.i9.i, %if.end.i.i.i ], [ %add1.i.i.i, %if.end4.i ]
  %13 = load ptr, ptr %counts.i.i, align 8
  %idxprom.i.i = sext i32 %retval.0.i.i.i to i64
  %arrayidx.i.i = getelementptr inbounds i64, ptr %13, i64 %idxprom.i.i
  %14 = load i64, ptr %arrayidx.i.i, align 8
  %add.i.i = add nsw i64 %14, %3
  store i64 %add.i.i, ptr %arrayidx.i.i, align 8
  %15 = load i64, ptr %total_count.i.i3, align 8
  %add1.i.i = add nsw i64 %15, %3
  store i64 %add1.i.i, ptr %total_count.i.i3, align 8
  %16 = load i64, ptr %min_value.i.i, align 8
  %cmp1.not.i.i = icmp eq i64 %2, 0
  %17 = call i64 @llvm.smin.i64(i64 %16, i64 %2)
  %value..i.i = select i1 %cmp1.not.i.i, i64 %16, i64 %17
  store i64 %value..i.i, ptr %min_value.i.i, align 8
  %18 = load i64, ptr %max_value.i.i, align 8
  %cond9.i.i = call i64 @llvm.smax.i64(i64 %18, i64 %2)
  store i64 %cond9.i.i, ptr %max_value.i.i, align 8
  br label %while.cond

while.cond:                                       ; preds = %hdr_record_values.exit.thread, %12
  %19 = phi i64 [ %dropped.07, %12 ], [ %add5, %hdr_record_values.exit.thread ]
  %20 = load ptr, ptr %_next_fp.i.i, align 8
  %call.i = call zeroext i1 %20(ptr noundef nonnull %iter) #21
  br i1 %call.i, label %while.body, label %while.end

while.end:                                        ; preds = %while.cond, %entry
  %dropped.0.lcssa = phi i64 [ 0, %entry ], [ %19, %while.cond ]
  ret i64 %dropped.0.lcssa
}